; Function Attrs: mustprogress nofree norecurse nosync nounwind willreturn memory(readwrite, inaccessiblemem: none) uwtable
define internal void @"_ZNSt17_Function_handlerIFvR7DfgEdgeEZN9DfgVertex12unlinkDeleteER8DfgGraphE3$_1E9_M_invokeERKSt9_Any_dataS1_"(ptr nocapture nonnull readnone align 8 %0, ptr noundef nonnull align 8 dereferenceable(32) %1) #8 align 2 {
  %3 = getelementptr inbounds i8, ptr %1, i64 16
  %4 = load ptr, ptr %3, align 8
  %.not.i.i.i.i = icmp eq ptr %4, null
  br i1 %.not.i.i.i.i, label %"_ZSt10__invoke_rIvRZN9DfgVertex12unlinkDeleteER8DfgGraphE3$_1JR7DfgEdgeEENSt9enable_ifIX16is_invocable_r_vIT_T0_DpT1_EES8_E4typeEOS9_DpOSA_.exit", label %5

5:                                                ; preds = %2
  %6 = getelementptr inbounds i8, ptr %1, i64 8
  %7 = load ptr, ptr %6, align 8
  %.not3.i.i.i.i = icmp eq ptr %7, null
  %.pre.i.i.i.i = load ptr, ptr %1, align 8
  br i1 %.not3.i.i.i.i, label %9, label %8

8:                                                ; preds = %5
  store ptr %.pre.i.i.i.i, ptr %7, align 8
  br label %9

9:                                                ; preds = %8, %5
  %.not4.i.i.i.i = icmp eq ptr %.pre.i.i.i.i, null
  br i1 %.not4.i.i.i.i, label %13, label %10

10:                                               ; preds = %9
  %11 = load ptr, ptr %6, align 8
  %12 = getelementptr inbounds i8, ptr %.pre.i.i.i.i, i64 8
  store ptr %11, ptr %12, align 8
  br label %13

13:                                               ; preds = %10, %9
  %14 = load ptr, ptr %3, align 8
  %15 = getelementptr inbounds i8, ptr %14, i64 24
  %16 = load ptr, ptr %15, align 8
  %17 = icmp eq ptr %16, %1
  br i1 %17, label %18, label %20

18:                                               ; preds = %13
  %19 = load ptr, ptr %1, align 8
  store ptr %19, ptr %15, align 8
  br label %20

20:                                               ; preds = %18, %13
  tail call void @llvm.memset.p0.i64(ptr noundef nonnull align 8 dereferenceable(24) %1, i8 0, i64 24, i1 false)
  br label %"_ZSt10__invoke_rIvRZN9DfgVertex12unlinkDeleteER8DfgGraphE3$_1JR7DfgEdgeEENSt9enable_ifIX16is_invocable_r_vIT_T0_DpT1_EES8_E4typeEOS9_DpOSA_.exit"

"_ZSt10__invoke_rIvRZN9DfgVertex12unlinkDeleteER8DfgGraphE3$_1JR7DfgEdgeEENSt9enable_ifIX16is_invocable_r_vIT_T0_DpT1_EES8_E4typeEOS9_DpOSA_.exit": ; preds = %2, %20
  ret void
}